target datalayout = "e-m:e-p270:32:32-p271:32:32-p272:64:64-i64:64-i128:128-f80:128-n8:16:32:64-S128"
target triple = "x86_64-pc-linux-gnu"

%class.BoxLockNode = type <{ %class.Node.base, i32, %class.RegMask, i32, [4 x i8] }>
%class.Node.base = type <{ ptr, ptr, ptr, i32, i32, i32, i32, i32, i32, i32 }>
%class.RegMask = type { %union.anon, i32, i32 }
%union.anon = type { [11 x i64] }
%class.Node = type <{ ptr, ptr, ptr, i32, i32, i32, i32, i32, i32, i32, [4 x i8] }>

; Function Attrs: mustprogress nounwind uwtable
define linkonce_odr hidden noundef ptr @_ZNK4Node2inEj(ptr noundef nonnull align 8 dereferenceable(52) %0, i32 noundef %1) #1 comdat align 2 {
  %3 = alloca ptr, align 8
  %4 = alloca i32, align 4
  store ptr %0, ptr %3, align 8
  store i32 %1, ptr %4, align 4
  %5 = load ptr, ptr %3, align 8
  %6 = getelementptr inbounds %class.Node, ptr %5, i32 0, i32 1
  %7 = load ptr, ptr %6, align 8
  %8 = load i32, ptr %4, align 4
  %9 = zext i32 %8 to i64
  %10 = getelementptr inbounds ptr, ptr %7, i64 %9
  %11 = load ptr, ptr %10, align 8
  ret ptr %11
}

; Function Attrs: mustprogress nounwind uwtable
define linkonce_odr hidden noundef ptr @_ZNK4Node7as_LockEv(ptr noundef nonnull align 8 dereferenceable(52) %0) #1 comdat align 2 {
  %2 = alloca ptr, align 8
  store ptr %0, ptr %2, align 8
  %3 = load ptr, ptr %2, align 8
  ret ptr %3
}

; Function Attrs: mustprogress nounwind uwtable
define linkonce_odr hidden noundef zeroext i1 @_ZNK4Node7is_LockEv(ptr noundef nonnull align 8 dereferenceable(52) %0) #1 comdat align 2 {
  %2 = alloca ptr, align 8
  store ptr %0, ptr %2, align 8
  %3 = load ptr, ptr %2, align 8
  %4 = getelementptr inbounds %class.Node, ptr %3, i32 0, i32 8
  %5 = load i32, ptr %4, align 4
  %6 = and i32 %5, 255
  %7 = icmp eq i32 %6, 199
  ret i1 %7
}

; Function Attrs: mustprogress nounwind uwtable
define linkonce_odr hidden noundef zeroext i1 @_ZNK4Node10eqv_uncastEPKS_b(ptr noundef nonnull align 8 dereferenceable(52) %0, ptr noundef %1, i1 noundef zeroext %2) #1 comdat align 2 {
  %4 = alloca ptr, align 8
  %5 = alloca ptr, align 8
  %6 = alloca i8, align 1
  store ptr %0, ptr %4, align 8
  store ptr %1, ptr %5, align 8
  %7 = zext i1 %2 to i8
  store i8 %7, ptr %6, align 1
  %8 = load ptr, ptr %4, align 8
  %9 = load i8, ptr %6, align 1
  %10 = trunc i8 %9 to i1
  %11 = call noundef ptr @_ZNK4Node6uncastEb(ptr noundef nonnull align 8 dereferenceable(52) %8, i1 noundef zeroext %10)
  %12 = load ptr, ptr %5, align 8
  %13 = load i8, ptr %6, align 1
  %14 = trunc i8 %13 to i1
  %15 = call noundef ptr @_ZNK4Node6uncastEb(ptr noundef nonnull align 8 dereferenceable(52) %12, i1 noundef zeroext %14)
  %16 = icmp eq ptr %11, %15
  ret i1 %16
}

; Function Attrs: mustprogress nounwind uwtable
define linkonce_odr hidden noundef ptr @_ZNK16AbstractLockNode8obj_nodeEv(ptr noundef nonnull align 8 dereferenceable(132) %0) #1 comdat align 2 {
  %2 = alloca ptr, align 8
  store ptr %0, ptr %2, align 8
  %3 = load ptr, ptr %2, align 8
  %4 = call noundef ptr @_ZNK4Node2inEj(ptr noundef nonnull align 8 dereferenceable(52) %3, i32 noundef 5)
  ret ptr %4
}

; Function Attrs: mustprogress nounwind uwtable
define linkonce_odr hidden noundef ptr @_ZNK16AbstractLockNode8box_nodeEv(ptr noundef nonnull align 8 dereferenceable(132) %0) #1 comdat align 2 {
  %2 = alloca ptr, align 8
  store ptr %0, ptr %2, align 8
  %3 = load ptr, ptr %2, align 8
  %4 = call noundef ptr @_ZNK4Node2inEj(ptr noundef nonnull align 8 dereferenceable(52) %3, i32 noundef 6)
  ret ptr %4
}

; Function Attrs: mustprogress nounwind uwtable
define linkonce_odr hidden noundef ptr @_ZNK4Node15as_AbstractLockEv(ptr noundef nonnull align 8 dereferenceable(52) %0) #1 comdat align 2 {
  %2 = alloca ptr, align 8
  store ptr %0, ptr %2, align 8
  %3 = load ptr, ptr %2, align 8
  ret ptr %3
}

; Function Attrs: mustprogress nounwind uwtable
define linkonce_odr hidden noundef zeroext i1 @_ZNK4Node15is_AbstractLockEv(ptr noundef nonnull align 8 dereferenceable(52) %0) #1 comdat align 2 {
  %2 = alloca ptr, align 8
  store ptr %0, ptr %2, align 8
  %3 = load ptr, ptr %2, align 8
  %4 = getelementptr inbounds %class.Node, ptr %3, i32 0, i32 8
  %5 = load i32, ptr %4, align 4
  %6 = and i32 %5, 127
  %7 = icmp eq i32 %6, 71
  ret i1 %7
}

; Function Attrs: mustprogress nounwind uwtable
define linkonce_odr hidden noundef ptr @_ZNK4Node7raw_outEj(ptr noundef nonnull align 8 dereferenceable(52) %0, i32 noundef %1) #1 comdat align 2 {
  %3 = alloca ptr, align 8
  %4 = alloca i32, align 4
  store ptr %0, ptr %3, align 8
  store i32 %1, ptr %4, align 4
  %5 = load ptr, ptr %3, align 8
  %6 = getelementptr inbounds %class.Node, ptr %5, i32 0, i32 2
  %7 = load ptr, ptr %6, align 8
  %8 = load i32, ptr %4, align 4
  %9 = zext i32 %8 to i64
  %10 = getelementptr inbounds ptr, ptr %7, i64 %9
  %11 = load ptr, ptr %10, align 8
  ret ptr %11
}

; Function Attrs: mustprogress nounwind uwtable
define linkonce_odr hidden noundef i32 @_ZNK4Node6outcntEv(ptr noundef nonnull align 8 dereferenceable(52) %0) #1 comdat align 2 {
  %2 = alloca ptr, align 8
  store ptr %0, ptr %2, align 8
  %3 = load ptr, ptr %2, align 8
  %4 = getelementptr inbounds %class.Node, ptr %3, i32 0, i32 5
  %5 = load i32, ptr %4, align 8
  ret i32 %5
}

; Function Attrs: mustprogress nounwind uwtable
define linkonce_odr hidden noundef zeroext i1 @_ZNK11BoxLockNode13is_unbalancedEv(ptr noundef nonnull align 8 dereferenceable(156) %0) #1 comdat align 2 {
  %2 = alloca ptr, align 8
  store ptr %0, ptr %2, align 8
  %3 = load ptr, ptr %2, align 8
  %4 = getelementptr inbounds %class.BoxLockNode, ptr %3, i32 0, i32 3
  %5 = load i32, ptr %4, align 8
  %6 = icmp eq i32 %5, 4
  ret i1 %6
}

; Function Attrs: mustprogress nounwind uwtable
define hidden noundef zeroext i1 @_ZN11BoxLockNode21is_simple_lock_regionEPP8LockNodeP4NodePS4_(ptr noundef nonnull align 8 dereferenceable(156) %0, ptr noundef %1, ptr noundef %2, ptr noundef %3) #1 align 2 {
  %5 = alloca i1, align 1
  %6 = alloca ptr, align 8
  %7 = alloca ptr, align 8
  %8 = alloca ptr, align 8
  %9 = alloca ptr, align 8
  %10 = alloca ptr, align 8
  %11 = alloca i8, align 1
  %12 = alloca i32, align 4
  %13 = alloca ptr, align 8
  %14 = alloca ptr, align 8
  store ptr %0, ptr %6, align 8
  store ptr %1, ptr %7, align 8
  store ptr %2, ptr %8, align 8
  store ptr %3, ptr %9, align 8
  %15 = load ptr, ptr %6, align 8
  %16 = call noundef zeroext i1 @_ZNK11BoxLockNode13is_unbalancedEv(ptr noundef nonnull align 8 dereferenceable(156) %15)
  br i1 %16, label %17, label %18

17:                                               ; preds = %4
  store i1 false, ptr %5, align 1
  br label %89

18:                                               ; preds = %4
  store ptr null, ptr %10, align 8
  store i8 0, ptr %11, align 1
  store i32 0, ptr %12, align 4
  br label %19

19:                                               ; preds = %76, %18
  %20 = load i32, ptr %12, align 4
  %21 = call noundef i32 @_ZNK4Node6outcntEv(ptr noundef nonnull align 8 dereferenceable(52) %15)
  %22 = icmp ult i32 %20, %21
  br i1 %22, label %23, label %79

23:                                               ; preds = %19
  %24 = load i32, ptr %12, align 4
  %25 = call noundef ptr @_ZNK4Node7raw_outEj(ptr noundef nonnull align 8 dereferenceable(52) %15, i32 noundef %24)
  store ptr %25, ptr %13, align 8
  %26 = load ptr, ptr %13, align 8
  %27 = call noundef zeroext i1 @_ZNK4Node15is_AbstractLockEv(ptr noundef nonnull align 8 dereferenceable(52) %26)
  br i1 %27, label %28, label %75

28:                                               ; preds = %23
  %29 = load ptr, ptr %13, align 8
  %30 = call noundef ptr @_ZNK4Node15as_AbstractLockEv(ptr noundef nonnull align 8 dereferenceable(52) %29)
  store ptr %30, ptr %14, align 8
  %31 = load ptr, ptr %14, align 8
  %32 = call noundef ptr @_ZNK16AbstractLockNode8box_nodeEv(ptr noundef nonnull align 8 dereferenceable(132) %31)
  %33 = icmp eq ptr %32, %15
  br i1 %33, label %34, label %74

34:                                               ; preds = %28
  %35 = load ptr, ptr %14, align 8
  %36 = call noundef ptr @_ZNK16AbstractLockNode8obj_nodeEv(ptr noundef nonnull align 8 dereferenceable(132) %35)
  %37 = load ptr, ptr %8, align 8
  %38 = call noundef zeroext i1 @_ZNK4Node10eqv_uncastEPKS_b(ptr noundef nonnull align 8 dereferenceable(52) %36, ptr noundef %37, i1 noundef zeroext false)
  br i1 %38, label %39, label %66

39:                                               ; preds = %34
  %40 = load ptr, ptr %7, align 8
  %41 = icmp ne ptr %40, null
  br i1 %41, label %42, label %65

42:                                               ; preds = %39
  %43 = load ptr, ptr %14, align 8
  %44 = call noundef zeroext i1 @_ZNK4Node7is_LockEv(ptr noundef nonnull align 8 dereferenceable(52) %43)
  br i1 %44, label %45, label %65

45:                                               ; preds = %42
  %46 = load ptr, ptr %10, align 8
  %47 = icmp eq ptr %46, null
  br i1 %47, label %48, label %51

48:                                               ; preds = %45
  %49 = load ptr, ptr %14, align 8
  %50 = call noundef ptr @_ZNK4Node7as_LockEv(ptr noundef nonnull align 8 dereferenceable(52) %49)
  store ptr %50, ptr %10, align 8
  store i8 1, ptr %11, align 1
  br label %64

51:                                               ; preds = %45
  %52 = load ptr, ptr %10, align 8
  %53 = load ptr, ptr %14, align 8
  %54 = call noundef ptr @_ZNK4Node7as_LockEv(ptr noundef nonnull align 8 dereferenceable(52) %53)
  %55 = icmp ne ptr %52, %54
  br i1 %55, label %56, label %63

56:                                               ; preds = %51
  store i8 0, ptr %11, align 1
  %57 = load ptr, ptr %9, align 8
  %58 = icmp ne ptr %57, null
  br i1 %58, label %59, label %62

59:                                               ; preds = %56
  %60 = load ptr, ptr %14, align 8
  %61 = load ptr, ptr %9, align 8
  store ptr %60, ptr %61, align 8
  br label %62

62:                                               ; preds = %59, %56
  br label %63

63:                                               ; preds = %62, %51
  br label %64

64:                                               ; preds = %63, %48
  br label %65

65:                                               ; preds = %64, %42, %39
  br label %73

66:                                               ; preds = %34
  %67 = load ptr, ptr %9, align 8
  %68 = icmp ne ptr %67, null
  br i1 %68, label %69, label %72

69:                                               ; preds = %66
  %70 = load ptr, ptr %14, align 8
  %71 = load ptr, ptr %9, align 8
  store ptr %70, ptr %71, align 8
  br label %72

72:                                               ; preds = %69, %66
  store i1 false, ptr %5, align 1
  br label %89

73:                                               ; preds = %65
  br label %74

74:                                               ; preds = %73, %28
  br label %75

75:                                               ; preds = %74, %23
  br label %76

76:                                               ; preds = %75
  %77 = load i32, ptr %12, align 4
  %78 = add i32 %77, 1
  store i32 %78, ptr %12, align 4
  br label %19, !llvm.loop !9

79:                                               ; preds = %19
  %80 = load ptr, ptr %7, align 8
  %81 = icmp ne ptr %80, null
  br i1 %81, label %82, label %88

82:                                               ; preds = %79
  %83 = load i8, ptr %11, align 1
  %84 = trunc i8 %83 to i1
  br i1 %84, label %85, label %88

85:                                               ; preds = %82
  %86 = load ptr, ptr %10, align 8
  %87 = load ptr, ptr %7, align 8
  store ptr %86, ptr %87, align 8
  br label %88

88:                                               ; preds = %85, %82, %79
  store i1 true, ptr %5, align 1
  br label %89

89:                                               ; preds = %88, %72, %17
  %90 = load i1, ptr %5, align 1
  ret i1 %90
}