; Function Attrs: mustprogress nounwind uwtable
define hidden noundef zeroext i1 @_ZN11BoxLockNode21is_simple_lock_regionEPP8LockNodeP4NodePS4_(ptr noundef nonnull readonly align 8 dereferenceable(156) %0, ptr noundef writeonly %1, ptr noundef %2, ptr noundef writeonly %3) local_unnamed_addr #2 align 2 {
  %5 = getelementptr inbounds i8, ptr %0, i64 152
  %6 = load i32, ptr %5, align 8
  %7 = icmp eq i32 %6, 4
  br i1 %7, label %._crit_edge.thread, label %.preheader

.preheader:                                       ; preds = %4
  %8 = getelementptr inbounds i8, ptr %0, i64 32
  %9 = load i32, ptr %8, align 8
  %.not55 = icmp eq i32 %9, 0
  br i1 %.not55, label %._crit_edge.thread, label %.lr.ph

.lr.ph:                                           ; preds = %.preheader
  %10 = getelementptr inbounds i8, ptr %0, i64 16
  %.not33 = icmp eq ptr %1, null
  br i1 %.not33, label %.lr.ph.split.us, label %.lr.ph.split

.lr.ph.split.us:                                  ; preds = %.lr.ph, %31
  %11 = phi i32 [ %32, %31 ], [ %9, %.lr.ph ]
  %indvars.iv67 = phi i64 [ %indvars.iv.next68, %31 ], [ 0, %.lr.ph ]
  %12 = load ptr, ptr %10, align 8
  %13 = getelementptr inbounds ptr, ptr %12, i64 %indvars.iv67
  %14 = load ptr, ptr %13, align 8
  %15 = getelementptr inbounds i8, ptr %14, i64 44
  %16 = load i32, ptr %15, align 4
  %17 = and i32 %16, 127
  %18 = icmp eq i32 %17, 71
  br i1 %18, label %19, label %31

19:                                               ; preds = %.lr.ph.split.us
  %20 = getelementptr inbounds i8, ptr %14, i64 8
  %21 = load ptr, ptr %20, align 8
  %22 = getelementptr inbounds i8, ptr %21, i64 48
  %23 = load ptr, ptr %22, align 8
  %24 = icmp eq ptr %23, %0
  br i1 %24, label %25, label %31

25:                                               ; preds = %19
  %26 = getelementptr inbounds i8, ptr %21, i64 40
  %27 = load ptr, ptr %26, align 8
  %28 = tail call noundef ptr @_ZNK4Node6uncastEb(ptr noundef nonnull align 8 dereferenceable(52) %27, i1 noundef zeroext false) #8
  %29 = tail call noundef ptr @_ZNK4Node6uncastEb(ptr noundef nonnull align 8 dereferenceable(52) %2, i1 noundef zeroext false) #8
  %30 = icmp eq ptr %28, %29
  br i1 %30, label %._crit_edge70, label %.split.us

._crit_edge70:                                    ; preds = %25
  %.pre = load i32, ptr %8, align 8
  br label %31

31:                                               ; preds = %._crit_edge70, %19, %.lr.ph.split.us
  %32 = phi i32 [ %.pre, %._crit_edge70 ], [ %11, %19 ], [ %11, %.lr.ph.split.us ]
  %indvars.iv.next68 = add nuw nsw i64 %indvars.iv67, 1
  %33 = zext i32 %32 to i64
  %34 = icmp ult i64 %indvars.iv.next68, %33
  br i1 %34, label %.lr.ph.split.us, label %._crit_edge.thread, !llvm.loop !9

.lr.ph.split:                                     ; preds = %.lr.ph
  %.not35 = icmp eq ptr %3, null
  br i1 %.not35, label %.lr.ph.split.split.us, label %.lr.ph.split.split

.lr.ph.split.split.us:                            ; preds = %.lr.ph.split, %61
  %indvars.iv65 = phi i64 [ %indvars.iv.next66, %61 ], [ 0, %.lr.ph.split ]
  %.02540.us44 = phi ptr [ %.1.us48, %61 ], [ null, %.lr.ph.split ]
  %.02738.us46 = phi i1 [ %.128.us47, %61 ], [ false, %.lr.ph.split ]
  %35 = load ptr, ptr %10, align 8
  %36 = getelementptr inbounds ptr, ptr %35, i64 %indvars.iv65
  %37 = load ptr, ptr %36, align 8
  %38 = getelementptr inbounds i8, ptr %37, i64 44
  %39 = load i32, ptr %38, align 4
  %40 = and i32 %39, 127
  %41 = icmp eq i32 %40, 71
  br i1 %41, label %42, label %61

42:                                               ; preds = %.lr.ph.split.split.us
  %43 = getelementptr inbounds i8, ptr %37, i64 8
  %44 = load ptr, ptr %43, align 8
  %45 = getelementptr inbounds i8, ptr %44, i64 48
  %46 = load ptr, ptr %45, align 8
  %47 = icmp eq ptr %46, %0
  br i1 %47, label %48, label %61

48:                                               ; preds = %42
  %49 = getelementptr inbounds i8, ptr %44, i64 40
  %50 = load ptr, ptr %49, align 8
  %51 = tail call noundef ptr @_ZNK4Node6uncastEb(ptr noundef nonnull align 8 dereferenceable(52) %50, i1 noundef zeroext false) #8
  %52 = tail call noundef ptr @_ZNK4Node6uncastEb(ptr noundef nonnull align 8 dereferenceable(52) %2, i1 noundef zeroext false) #8
  %53 = icmp eq ptr %51, %52
  br i1 %53, label %54, label %.split.us

54:                                               ; preds = %48
  %55 = load i32, ptr %38, align 4
  %56 = and i32 %55, 255
  %57 = icmp eq i32 %56, 199
  br i1 %57, label %58, label %61

58:                                               ; preds = %54
  %59 = icmp eq ptr %.02540.us44, null
  br i1 %59, label %61, label %60

60:                                               ; preds = %58
  %.not34.us = icmp eq ptr %.02540.us44, %37
  %spec.select = select i1 %.not34.us, i1 %.02738.us46, i1 false
  br label %61

61:                                               ; preds = %60, %58, %54, %42, %.lr.ph.split.split.us
  %.128.us47 = phi i1 [ %.02738.us46, %54 ], [ %.02738.us46, %42 ], [ %.02738.us46, %.lr.ph.split.split.us ], [ true, %58 ], [ %spec.select, %60 ]
  %.1.us48 = phi ptr [ %.02540.us44, %54 ], [ %.02540.us44, %42 ], [ %.02540.us44, %.lr.ph.split.split.us ], [ %37, %58 ], [ %.02540.us44, %60 ]
  %indvars.iv.next66 = add nuw nsw i64 %indvars.iv65, 1
  %62 = load i32, ptr %8, align 8
  %63 = zext i32 %62 to i64
  %64 = icmp ult i64 %indvars.iv.next66, %63
  br i1 %64, label %.lr.ph.split.split.us, label %._crit_edge, !llvm.loop !9

.lr.ph.split.split:                               ; preds = %.lr.ph.split, %93
  %indvars.iv = phi i64 [ %indvars.iv.next, %93 ], [ 0, %.lr.ph.split ]
  %.02540 = phi ptr [ %.1, %93 ], [ null, %.lr.ph.split ]
  %.02738 = phi i1 [ %.128, %93 ], [ false, %.lr.ph.split ]
  %65 = load ptr, ptr %10, align 8
  %66 = getelementptr inbounds ptr, ptr %65, i64 %indvars.iv
  %67 = load ptr, ptr %66, align 8
  %68 = getelementptr inbounds i8, ptr %67, i64 44
  %69 = load i32, ptr %68, align 4
  %70 = and i32 %69, 127
  %71 = icmp eq i32 %70, 71
  br i1 %71, label %72, label %93

72:                                               ; preds = %.lr.ph.split.split
  %73 = getelementptr inbounds i8, ptr %67, i64 8
  %74 = load ptr, ptr %73, align 8
  %75 = getelementptr inbounds i8, ptr %74, i64 48
  %76 = load ptr, ptr %75, align 8
  %77 = icmp eq ptr %76, %0
  br i1 %77, label %78, label %93

78:                                               ; preds = %72
  %79 = getelementptr inbounds i8, ptr %74, i64 40
  %80 = load ptr, ptr %79, align 8
  %81 = tail call noundef ptr @_ZNK4Node6uncastEb(ptr noundef nonnull align 8 dereferenceable(52) %80, i1 noundef zeroext false) #8
  %82 = tail call noundef ptr @_ZNK4Node6uncastEb(ptr noundef nonnull align 8 dereferenceable(52) %2, i1 noundef zeroext false) #8
  %83 = icmp eq ptr %81, %82
  br i1 %83, label %84, label %.split.us

84:                                               ; preds = %78
  %85 = load i32, ptr %68, align 4
  %86 = and i32 %85, 255
  %87 = icmp eq i32 %86, 199
  br i1 %87, label %88, label %93

88:                                               ; preds = %84
  %89 = icmp eq ptr %.02540, null
  br i1 %89, label %93, label %90

90:                                               ; preds = %88
  %.not34 = icmp eq ptr %.02540, %67
  br i1 %.not34, label %93, label %91

91:                                               ; preds = %90
  store ptr %67, ptr %3, align 8
  br label %93

.split.us:                                        ; preds = %78, %48, %25
  %.us-phi = phi ptr [ %14, %25 ], [ %37, %48 ], [ %67, %78 ]
  %.not32 = icmp eq ptr %3, null
  br i1 %.not32, label %._crit_edge.thread, label %92

92:                                               ; preds = %.split.us
  store ptr %.us-phi, ptr %3, align 8
  br label %._crit_edge.thread

93:                                               ; preds = %88, %.lr.ph.split.split, %91, %90, %84, %72
  %.128 = phi i1 [ false, %91 ], [ %.02738, %90 ], [ %.02738, %84 ], [ %.02738, %72 ], [ %.02738, %.lr.ph.split.split ], [ true, %88 ]
  %.1 = phi ptr [ %.02540, %91 ], [ %.02540, %90 ], [ %.02540, %84 ], [ %.02540, %72 ], [ %.02540, %.lr.ph.split.split ], [ %67, %88 ]
  %indvars.iv.next = add nuw nsw i64 %indvars.iv, 1
  %94 = load i32, ptr %8, align 8
  %95 = zext i32 %94 to i64
  %96 = icmp ult i64 %indvars.iv.next, %95
  br i1 %96, label %.lr.ph.split.split, label %._crit_edge, !llvm.loop !9

._crit_edge:                                      ; preds = %93, %61
  %.027.lcssa = phi i1 [ %.128.us47, %61 ], [ %.128, %93 ]
  %.025.lcssa = phi ptr [ %.1.us48, %61 ], [ %.1, %93 ]
  br i1 %.027.lcssa, label %97, label %._crit_edge.thread

97:                                               ; preds = %._crit_edge
  store ptr %.025.lcssa, ptr %1, align 8
  br label %._crit_edge.thread

._crit_edge.thread:                               ; preds = %31, %.preheader, %._crit_edge, %97, %.split.us, %92, %4
  %.0 = phi i1 [ false, %4 ], [ false, %92 ], [ false, %.split.us ], [ true, %97 ], [ true, %._crit_edge ], [ true, %.preheader ], [ true, %31 ]
  ret i1 %.0
}